target datalayout = "e-m:e-p270:32:32-p271:32:32-p272:64:64-i64:64-i128:128-f80:128-n8:16:32:64-S128"
target triple = "x86_64-pc-linux-gnu"

%struct.jpeg_common_struct = type { ptr, ptr, ptr, ptr, i32, i32 }
%struct.jpeg_error_mgr = type { ptr, ptr, ptr, ptr, ptr, i32, %union.anon, i32, i64, ptr, i32, ptr, i32, i32 }
%union.anon = type { [8 x i32], [48 x i8] }
%struct.jpeg_decompress_struct = type { ptr, ptr, ptr, ptr, i32, i32, ptr, i32, i32, i32, i32, i32, i32, i32, double, i32, i32, i32, i32, i32, i32, i32, i32, i32, i32, i32, i32, i32, i32, i32, i32, i32, i32, ptr, i32, i32, i32, i32, i32, ptr, [4 x ptr], [4 x ptr], [4 x ptr], i32, ptr, i32, i32, [16 x i8], [16 x i8], [16 x i8], i32, i32, i8, i8, i8, i16, i16, i32, i8, i32, ptr, i32, i32, i32, i32, ptr, i32, [4 x ptr], i32, i32, i32, [10 x i32], i32, i32, i32, i32, i32, ptr, ptr, ptr, ptr, ptr, ptr, ptr, ptr, ptr, ptr, ptr }
%struct.jpeg_compress_struct = type { ptr, ptr, ptr, ptr, i32, i32, ptr, i32, i32, i32, i32, double, i32, i32, i32, ptr, [4 x ptr], [4 x ptr], [4 x ptr], [16 x i8], [16 x i8], [16 x i8], i32, ptr, i32, i32, i32, i32, i32, i32, i32, i32, i32, i8, i8, i8, i16, i16, i32, i32, i32, i32, i32, i32, i32, [4 x ptr], i32, i32, i32, [10 x i32], i32, i32, i32, i32, ptr, ptr, ptr, ptr, ptr, ptr, ptr, ptr, ptr, ptr, i32 }
%struct.jvirt_sarray_control = type { ptr, i32, i32, i32, i32, i32, i32, i32, i32, i32, i32, ptr, %struct.backing_store_struct }
%struct.backing_store_struct = type { ptr, ptr, ptr, ptr, [64 x i8] }

; Function Attrs: nounwind uwtable
define internal ptr @access_virt_sarray(ptr noundef %0, ptr noundef %1, i32 noundef %2, i32 noundef %3, i32 noundef %4) #0 {
  %6 = alloca ptr, align 8
  %7 = alloca ptr, align 8
  %8 = alloca i32, align 4
  %9 = alloca i32, align 4
  %10 = alloca i32, align 4
  %11 = alloca i32, align 4
  %12 = alloca i32, align 4
  %13 = alloca i32, align 4
  %14 = alloca i64, align 8
  %15 = alloca i64, align 8
  %16 = alloca i64, align 8
  store ptr %0, ptr %6, align 8, !tbaa !3
  store ptr %1, ptr %7, align 8, !tbaa !106
  store i32 %2, ptr %8, align 4, !tbaa !40
  store i32 %3, ptr %9, align 4, !tbaa !40
  store i32 %4, ptr %10, align 4, !tbaa !40
  call void @llvm.lifetime.start.p0(i64 4, ptr %11) #8
  %17 = load i32, ptr %8, align 4, !tbaa !40
  %18 = load i32, ptr %9, align 4, !tbaa !40
  %19 = add i32 %17, %18
  store i32 %19, ptr %11, align 4, !tbaa !40
  call void @llvm.lifetime.start.p0(i64 4, ptr %12) #8
  call void @llvm.lifetime.start.p0(i64 4, ptr %13) #8
  %20 = load ptr, ptr %6, align 8, !tbaa !3
  %21 = getelementptr inbounds nuw %struct.jpeg_common_struct, ptr %20, i32 0, i32 4
  %22 = load i32, ptr %21, align 8, !tbaa !61
  %23 = icmp ne i32 %22, 0
  br i1 %23, label %24, label %28

24:                                               ; preds = %5
  %25 = load ptr, ptr %6, align 8, !tbaa !3
  %26 = getelementptr inbounds nuw %struct.jpeg_decompress_struct, ptr %25, i32 0, i32 43
  %27 = load i32, ptr %26, align 8, !tbaa !62
  br label %32

28:                                               ; preds = %5
  %29 = load ptr, ptr %6, align 8, !tbaa !3
  %30 = getelementptr inbounds nuw %struct.jpeg_compress_struct, ptr %29, i32 0, i32 12
  %31 = load i32, ptr %30, align 8, !tbaa !80
  br label %32

32:                                               ; preds = %28, %24
  %33 = phi i32 [ %27, %24 ], [ %31, %28 ]
  store i32 %33, ptr %13, align 4, !tbaa !40
  call void @llvm.lifetime.start.p0(i64 8, ptr %14) #8
  %34 = load i32, ptr %13, align 4, !tbaa !40
  %35 = icmp sgt i32 %34, 12
  br i1 %35, label %36, label %37

36:                                               ; preds = %32
  br label %41

37:                                               ; preds = %32
  %38 = load i32, ptr %13, align 4, !tbaa !40
  %39 = icmp sgt i32 %38, 8
  %40 = select i1 %39, i64 2, i64 1
  br label %41

41:                                               ; preds = %37, %36
  %42 = phi i64 [ 2, %36 ], [ %40, %37 ]
  store i64 %42, ptr %14, align 8, !tbaa !14
  %43 = load i32, ptr %11, align 4, !tbaa !40
  %44 = load ptr, ptr %7, align 8, !tbaa !106
  %45 = getelementptr inbounds nuw %struct.jvirt_sarray_control, ptr %44, i32 0, i32 1
  %46 = load i32, ptr %45, align 8, !tbaa !111
  %47 = icmp ugt i32 %43, %46
  br i1 %47, label %59, label %48

48:                                               ; preds = %41
  %49 = load i32, ptr %9, align 4, !tbaa !40
  %50 = load ptr, ptr %7, align 8, !tbaa !106
  %51 = getelementptr inbounds nuw %struct.jvirt_sarray_control, ptr %50, i32 0, i32 3
  %52 = load i32, ptr %51, align 8, !tbaa !113
  %53 = icmp ugt i32 %49, %52
  br i1 %53, label %59, label %54

54:                                               ; preds = %48
  %55 = load ptr, ptr %7, align 8, !tbaa !106
  %56 = getelementptr inbounds nuw %struct.jvirt_sarray_control, ptr %55, i32 0, i32 0
  %57 = load ptr, ptr %56, align 8, !tbaa !107
  %58 = icmp eq ptr %57, null
  br i1 %58, label %59, label %70

59:                                               ; preds = %54, %48, %41
  %60 = load ptr, ptr %6, align 8, !tbaa !3
  %61 = getelementptr inbounds nuw %struct.jpeg_common_struct, ptr %60, i32 0, i32 0
  %62 = load ptr, ptr %61, align 8, !tbaa !16
  %63 = getelementptr inbounds nuw %struct.jpeg_error_mgr, ptr %62, i32 0, i32 5
  store i32 22, ptr %63, align 8, !tbaa !17
  %64 = load ptr, ptr %6, align 8, !tbaa !3
  %65 = getelementptr inbounds nuw %struct.jpeg_common_struct, ptr %64, i32 0, i32 0
  %66 = load ptr, ptr %65, align 8, !tbaa !16
  %67 = getelementptr inbounds nuw %struct.jpeg_error_mgr, ptr %66, i32 0, i32 0
  %68 = load ptr, ptr %67, align 8, !tbaa !20
  %69 = load ptr, ptr %6, align 8, !tbaa !3
  call void %68(ptr noundef %69)
  br label %70

70:                                               ; preds = %59, %54
  %71 = load i32, ptr %8, align 4, !tbaa !40
  %72 = load ptr, ptr %7, align 8, !tbaa !106
  %73 = getelementptr inbounds nuw %struct.jvirt_sarray_control, ptr %72, i32 0, i32 6
  %74 = load i32, ptr %73, align 4, !tbaa !130
  %75 = icmp ult i32 %71, %74
  br i1 %75, label %86, label %76

76:                                               ; preds = %70
  %77 = load i32, ptr %11, align 4, !tbaa !40
  %78 = load ptr, ptr %7, align 8, !tbaa !106
  %79 = getelementptr inbounds nuw %struct.jvirt_sarray_control, ptr %78, i32 0, i32 6
  %80 = load i32, ptr %79, align 4, !tbaa !130
  %81 = load ptr, ptr %7, align 8, !tbaa !106
  %82 = getelementptr inbounds nuw %struct.jvirt_sarray_control, ptr %81, i32 0, i32 4
  %83 = load i32, ptr %82, align 4, !tbaa !128
  %84 = add i32 %80, %83
  %85 = icmp ugt i32 %77, %84
  br i1 %85, label %86, label %141

86:                                               ; preds = %76, %70
  %87 = load ptr, ptr %7, align 8, !tbaa !106
  %88 = getelementptr inbounds nuw %struct.jvirt_sarray_control, ptr %87, i32 0, i32 10
  %89 = load i32, ptr %88, align 4, !tbaa !115
  %90 = icmp ne i32 %89, 0
  br i1 %90, label %102, label %91

91:                                               ; preds = %86
  %92 = load ptr, ptr %6, align 8, !tbaa !3
  %93 = getelementptr inbounds nuw %struct.jpeg_common_struct, ptr %92, i32 0, i32 0
  %94 = load ptr, ptr %93, align 8, !tbaa !16
  %95 = getelementptr inbounds nuw %struct.jpeg_error_mgr, ptr %94, i32 0, i32 5
  store i32 69, ptr %95, align 8, !tbaa !17
  %96 = load ptr, ptr %6, align 8, !tbaa !3
  %97 = getelementptr inbounds nuw %struct.jpeg_common_struct, ptr %96, i32 0, i32 0
  %98 = load ptr, ptr %97, align 8, !tbaa !16
  %99 = getelementptr inbounds nuw %struct.jpeg_error_mgr, ptr %98, i32 0, i32 0
  %100 = load ptr, ptr %99, align 8, !tbaa !20
  %101 = load ptr, ptr %6, align 8, !tbaa !3
  call void %100(ptr noundef %101)
  br label %102

102:                                              ; preds = %91, %86
  %103 = load ptr, ptr %7, align 8, !tbaa !106
  %104 = getelementptr inbounds nuw %struct.jvirt_sarray_control, ptr %103, i32 0, i32 9
  %105 = load i32, ptr %104, align 8, !tbaa !132
  %106 = icmp ne i32 %105, 0
  br i1 %106, label %107, label %112

107:                                              ; preds = %102
  %108 = load ptr, ptr %6, align 8, !tbaa !3
  %109 = load ptr, ptr %7, align 8, !tbaa !106
  call void @do_sarray_io(ptr noundef %108, ptr noundef %109, i32 noundef 1)
  %110 = load ptr, ptr %7, align 8, !tbaa !106
  %111 = getelementptr inbounds nuw %struct.jvirt_sarray_control, ptr %110, i32 0, i32 9
  store i32 0, ptr %111, align 8, !tbaa !132
  br label %112

112:                                              ; preds = %107, %102
  %113 = load i32, ptr %8, align 4, !tbaa !40
  %114 = load ptr, ptr %7, align 8, !tbaa !106
  %115 = getelementptr inbounds nuw %struct.jvirt_sarray_control, ptr %114, i32 0, i32 6
  %116 = load i32, ptr %115, align 4, !tbaa !130
  %117 = icmp ugt i32 %113, %116
  br i1 %117, label %118, label %122

118:                                              ; preds = %112
  %119 = load i32, ptr %8, align 4, !tbaa !40
  %120 = load ptr, ptr %7, align 8, !tbaa !106
  %121 = getelementptr inbounds nuw %struct.jvirt_sarray_control, ptr %120, i32 0, i32 6
  store i32 %119, ptr %121, align 4, !tbaa !130
  br label %138

122:                                              ; preds = %112
  call void @llvm.lifetime.start.p0(i64 8, ptr %15) #8
  %123 = load i32, ptr %11, align 4, !tbaa !40
  %124 = zext i32 %123 to i64
  %125 = load ptr, ptr %7, align 8, !tbaa !106
  %126 = getelementptr inbounds nuw %struct.jvirt_sarray_control, ptr %125, i32 0, i32 4
  %127 = load i32, ptr %126, align 4, !tbaa !128
  %128 = zext i32 %127 to i64
  %129 = sub nsw i64 %124, %128
  store i64 %129, ptr %15, align 8, !tbaa !14
  %130 = load i64, ptr %15, align 8, !tbaa !14
  %131 = icmp slt i64 %130, 0
  br i1 %131, label %132, label %133

132:                                              ; preds = %122
  store i64 0, ptr %15, align 8, !tbaa !14
  br label %133

133:                                              ; preds = %132, %122
  %134 = load i64, ptr %15, align 8, !tbaa !14
  %135 = trunc i64 %134 to i32
  %136 = load ptr, ptr %7, align 8, !tbaa !106
  %137 = getelementptr inbounds nuw %struct.jvirt_sarray_control, ptr %136, i32 0, i32 6
  store i32 %135, ptr %137, align 4, !tbaa !130
  call void @llvm.lifetime.end.p0(i64 8, ptr %15) #8
  br label %138

138:                                              ; preds = %133, %118
  %139 = load ptr, ptr %6, align 8, !tbaa !3
  %140 = load ptr, ptr %7, align 8, !tbaa !106
  call void @do_sarray_io(ptr noundef %139, ptr noundef %140, i32 noundef 0)
  br label %141

141:                                              ; preds = %138, %76
  %142 = load ptr, ptr %7, align 8, !tbaa !106
  %143 = getelementptr inbounds nuw %struct.jvirt_sarray_control, ptr %142, i32 0, i32 7
  %144 = load i32, ptr %143, align 8, !tbaa !131
  %145 = load i32, ptr %11, align 4, !tbaa !40
  %146 = icmp ult i32 %144, %145
  br i1 %146, label %147, label %234

147:                                              ; preds = %141
  %148 = load ptr, ptr %7, align 8, !tbaa !106
  %149 = getelementptr inbounds nuw %struct.jvirt_sarray_control, ptr %148, i32 0, i32 7
  %150 = load i32, ptr %149, align 8, !tbaa !131
  %151 = load i32, ptr %8, align 4, !tbaa !40
  %152 = icmp ult i32 %150, %151
  br i1 %152, label %153, label %169

153:                                              ; preds = %147
  %154 = load i32, ptr %10, align 4, !tbaa !40
  %155 = icmp ne i32 %154, 0
  br i1 %155, label %156, label %167

156:                                              ; preds = %153
  %157 = load ptr, ptr %6, align 8, !tbaa !3
  %158 = getelementptr inbounds nuw %struct.jpeg_common_struct, ptr %157, i32 0, i32 0
  %159 = load ptr, ptr %158, align 8, !tbaa !16
  %160 = getelementptr inbounds nuw %struct.jpeg_error_mgr, ptr %159, i32 0, i32 5
  store i32 22, ptr %160, align 8, !tbaa !17
  %161 = load ptr, ptr %6, align 8, !tbaa !3
  %162 = getelementptr inbounds nuw %struct.jpeg_common_struct, ptr %161, i32 0, i32 0
  %163 = load ptr, ptr %162, align 8, !tbaa !16
  %164 = getelementptr inbounds nuw %struct.jpeg_error_mgr, ptr %163, i32 0, i32 0
  %165 = load ptr, ptr %164, align 8, !tbaa !20
  %166 = load ptr, ptr %6, align 8, !tbaa !3
  call void %165(ptr noundef %166)
  br label %167

167:                                              ; preds = %156, %153
  %168 = load i32, ptr %8, align 4, !tbaa !40
  store i32 %168, ptr %12, align 4, !tbaa !40
  br label %173

169:                                              ; preds = %147
  %170 = load ptr, ptr %7, align 8, !tbaa !106
  %171 = getelementptr inbounds nuw %struct.jvirt_sarray_control, ptr %170, i32 0, i32 7
  %172 = load i32, ptr %171, align 8, !tbaa !131
  store i32 %172, ptr %12, align 4, !tbaa !40
  br label %173

173:                                              ; preds = %169, %167
  %174 = load i32, ptr %10, align 4, !tbaa !40
  %175 = icmp ne i32 %174, 0
  br i1 %175, label %176, label %180

176:                                              ; preds = %173
  %177 = load i32, ptr %11, align 4, !tbaa !40
  %178 = load ptr, ptr %7, align 8, !tbaa !106
  %179 = getelementptr inbounds nuw %struct.jvirt_sarray_control, ptr %178, i32 0, i32 7
  store i32 %177, ptr %179, align 8, !tbaa !131
  br label %180

180:                                              ; preds = %176, %173
  %181 = load ptr, ptr %7, align 8, !tbaa !106
  %182 = getelementptr inbounds nuw %struct.jvirt_sarray_control, ptr %181, i32 0, i32 8
  %183 = load i32, ptr %182, align 4, !tbaa !114
  %184 = icmp ne i32 %183, 0
  br i1 %184, label %185, label %218

185:                                              ; preds = %180
  call void @llvm.lifetime.start.p0(i64 8, ptr %16) #8
  %186 = load ptr, ptr %7, align 8, !tbaa !106
  %187 = getelementptr inbounds nuw %struct.jvirt_sarray_control, ptr %186, i32 0, i32 2
  %188 = load i32, ptr %187, align 4, !tbaa !112
  %189 = zext i32 %188 to i64
  %190 = load i64, ptr %14, align 8, !tbaa !14
  %191 = mul i64 %189, %190
  store i64 %191, ptr %16, align 8, !tbaa !14
  %192 = load ptr, ptr %7, align 8, !tbaa !106
  %193 = getelementptr inbounds nuw %struct.jvirt_sarray_control, ptr %192, i32 0, i32 6
  %194 = load i32, ptr %193, align 4, !tbaa !130
  %195 = load i32, ptr %12, align 4, !tbaa !40
  %196 = sub i32 %195, %194
  store i32 %196, ptr %12, align 4, !tbaa !40
  %197 = load ptr, ptr %7, align 8, !tbaa !106
  %198 = getelementptr inbounds nuw %struct.jvirt_sarray_control, ptr %197, i32 0, i32 6
  %199 = load i32, ptr %198, align 4, !tbaa !130
  %200 = load i32, ptr %11, align 4, !tbaa !40
  %201 = sub i32 %200, %199
  store i32 %201, ptr %11, align 4, !tbaa !40
  br label %202

202:                                              ; preds = %206, %185
  %203 = load i32, ptr %12, align 4, !tbaa !40
  %204 = load i32, ptr %11, align 4, !tbaa !40
  %205 = icmp ult i32 %203, %204
  br i1 %205, label %206, label %217

206:                                              ; preds = %202
  %207 = load ptr, ptr %7, align 8, !tbaa !106
  %208 = getelementptr inbounds nuw %struct.jvirt_sarray_control, ptr %207, i32 0, i32 0
  %209 = load ptr, ptr %208, align 8, !tbaa !107
  %210 = load i32, ptr %12, align 4, !tbaa !40
  %211 = zext i32 %210 to i64
  %212 = getelementptr inbounds nuw ptr, ptr %209, i64 %211
  %213 = load ptr, ptr %212, align 8, !tbaa !55
  %214 = load i64, ptr %16, align 8, !tbaa !14
  call void @jzero_far(ptr noundef %213, i64 noundef %214)
  %215 = load i32, ptr %12, align 4, !tbaa !40
  %216 = add i32 %215, 1
  store i32 %216, ptr %12, align 4, !tbaa !40
  br label %202, !llvm.loop !140

217:                                              ; preds = %202
  call void @llvm.lifetime.end.p0(i64 8, ptr %16) #8
  br label %233

218:                                              ; preds = %180
  %219 = load i32, ptr %10, align 4, !tbaa !40
  %220 = icmp ne i32 %219, 0
  br i1 %220, label %232, label %221

221:                                              ; preds = %218
  %222 = load ptr, ptr %6, align 8, !tbaa !3
  %223 = getelementptr inbounds nuw %struct.jpeg_common_struct, ptr %222, i32 0, i32 0
  %224 = load ptr, ptr %223, align 8, !tbaa !16
  %225 = getelementptr inbounds nuw %struct.jpeg_error_mgr, ptr %224, i32 0, i32 5
  store i32 22, ptr %225, align 8, !tbaa !17
  %226 = load ptr, ptr %6, align 8, !tbaa !3
  %227 = getelementptr inbounds nuw %struct.jpeg_common_struct, ptr %226, i32 0, i32 0
  %228 = load ptr, ptr %227, align 8, !tbaa !16
  %229 = getelementptr inbounds nuw %struct.jpeg_error_mgr, ptr %228, i32 0, i32 0
  %230 = load ptr, ptr %229, align 8, !tbaa !20
  %231 = load ptr, ptr %6, align 8, !tbaa !3
  call void %230(ptr noundef %231)
  br label %232

232:                                              ; preds = %221, %218
  br label %233

233:                                              ; preds = %232, %217
  br label %234

234:                                              ; preds = %233, %141
  %235 = load i32, ptr %10, align 4, !tbaa !40
  %236 = icmp ne i32 %235, 0
  br i1 %236, label %237, label %240

237:                                              ; preds = %234
  %238 = load ptr, ptr %7, align 8, !tbaa !106
  %239 = getelementptr inbounds nuw %struct.jvirt_sarray_control, ptr %238, i32 0, i32 9
  store i32 1, ptr %239, align 8, !tbaa !132
  br label %240

240:                                              ; preds = %237, %234
  %241 = load ptr, ptr %7, align 8, !tbaa !106
  %242 = getelementptr inbounds nuw %struct.jvirt_sarray_control, ptr %241, i32 0, i32 0
  %243 = load ptr, ptr %242, align 8, !tbaa !107
  %244 = load i32, ptr %8, align 4, !tbaa !40
  %245 = load ptr, ptr %7, align 8, !tbaa !106
  %246 = getelementptr inbounds nuw %struct.jvirt_sarray_control, ptr %245, i32 0, i32 6
  %247 = load i32, ptr %246, align 4, !tbaa !130
  %248 = sub i32 %244, %247
  %249 = zext i32 %248 to i64
  %250 = getelementptr inbounds nuw ptr, ptr %243, i64 %249
  call void @llvm.lifetime.end.p0(i64 8, ptr %14) #8
  call void @llvm.lifetime.end.p0(i64 4, ptr %13) #8
  call void @llvm.lifetime.end.p0(i64 4, ptr %12) #8
  call void @llvm.lifetime.end.p0(i64 4, ptr %11) #8
  ret ptr %250
}