; Function Attrs: nounwind uwtable
define internal ptr @access_virt_sarray(ptr noundef %0, ptr noundef %1, i32 noundef %2, i32 noundef %3, i32 noundef %4) #0 {
  %6 = add i32 %3, %2
  %7 = getelementptr inbounds nuw i8, ptr %0, i64 32
  %8 = load i32, ptr %7, align 8, !tbaa !52
  %.not = icmp eq i32 %8, 0
  %.in.v = select i1 %.not, i64 72, i64 296
  %.in = getelementptr inbounds nuw i8, ptr %0, i64 %.in.v
  %9 = load i32, ptr %.in, align 8, !tbaa !53
  %10 = icmp sgt i32 %9, 8
  %11 = getelementptr inbounds nuw i8, ptr %1, i64 8
  %12 = load i32, ptr %11, align 8, !tbaa !71
  %13 = icmp ugt i32 %6, %12
  br i1 %13, label %21, label %14

14:                                               ; preds = %5
  %15 = getelementptr inbounds nuw i8, ptr %1, i64 16
  %16 = load i32, ptr %15, align 8, !tbaa !73
  %17 = icmp ugt i32 %3, %16
  br i1 %17, label %21, label %18

18:                                               ; preds = %14
  %19 = load ptr, ptr %1, align 8, !tbaa !67
  %20 = icmp eq ptr %19, null
  br i1 %20, label %21, label %25

21:                                               ; preds = %18, %14, %5
  %22 = load ptr, ptr %0, align 8, !tbaa !14
  %23 = getelementptr inbounds nuw i8, ptr %22, i64 40
  store i32 22, ptr %23, align 8, !tbaa !15
  %24 = load ptr, ptr %22, align 8, !tbaa !19
  tail call void %24(ptr noundef nonnull %0) #9
  br label %25

25:                                               ; preds = %21, %18
  %26 = getelementptr inbounds nuw i8, ptr %1, i64 28
  %27 = load i32, ptr %26, align 4, !tbaa !94
  %28 = icmp ult i32 %2, %27
  br i1 %28, label %34, label %29

29:                                               ; preds = %25
  %30 = getelementptr inbounds nuw i8, ptr %1, i64 20
  %31 = load i32, ptr %30, align 4, !tbaa !92
  %32 = add i32 %31, %27
  %33 = icmp ugt i32 %6, %32
  br i1 %33, label %34, label %56

34:                                               ; preds = %29, %25
  %35 = getelementptr inbounds nuw i8, ptr %1, i64 44
  %36 = load i32, ptr %35, align 4, !tbaa !75
  %.not78 = icmp eq i32 %36, 0
  br i1 %.not78, label %37, label %41

37:                                               ; preds = %34
  %38 = load ptr, ptr %0, align 8, !tbaa !14
  %39 = getelementptr inbounds nuw i8, ptr %38, i64 40
  store i32 69, ptr %39, align 8, !tbaa !15
  %40 = load ptr, ptr %38, align 8, !tbaa !19
  tail call void %40(ptr noundef nonnull %0) #9
  br label %41

41:                                               ; preds = %37, %34
  %42 = getelementptr inbounds nuw i8, ptr %1, i64 40
  %43 = load i32, ptr %42, align 8, !tbaa !96
  %.not79 = icmp eq i32 %43, 0
  br i1 %.not79, label %45, label %44

44:                                               ; preds = %41
  tail call fastcc void @do_sarray_io(ptr noundef nonnull %0, ptr noundef nonnull %1, i32 noundef 1)
  store i32 0, ptr %42, align 8, !tbaa !96
  br label %45

45:                                               ; preds = %44, %41
  %46 = load i32, ptr %26, align 4, !tbaa !94
  %47 = icmp ugt i32 %2, %46
  br i1 %47, label %55, label %48

48:                                               ; preds = %45
  %49 = zext i32 %6 to i64
  %50 = getelementptr inbounds nuw i8, ptr %1, i64 20
  %51 = load i32, ptr %50, align 4, !tbaa !92
  %52 = zext i32 %51 to i64
  %53 = sub nsw i64 %49, %52
  %spec.store.select = tail call i64 @llvm.smax.i64(i64 %53, i64 0)
  %54 = trunc nuw i64 %spec.store.select to i32
  br label %55

55:                                               ; preds = %45, %48
  %storemerge = phi i32 [ %54, %48 ], [ %2, %45 ]
  store i32 %storemerge, ptr %26, align 4, !tbaa !94
  tail call fastcc void @do_sarray_io(ptr noundef nonnull %0, ptr noundef nonnull %1, i32 noundef 0)
  br label %56

56:                                               ; preds = %55, %29
  %57 = getelementptr inbounds nuw i8, ptr %1, i64 32
  %58 = load i32, ptr %57, align 8, !tbaa !95
  %59 = icmp ult i32 %58, %6
  br i1 %59, label %60, label %.loopexit

60:                                               ; preds = %56
  %61 = icmp ult i32 %58, %2
  %.not80 = icmp eq i32 %4, 0
  br i1 %61, label %62, label %66

62:                                               ; preds = %60
  br i1 %.not80, label %.thread93, label %.thread88

.thread88:                                        ; preds = %62
  %63 = load ptr, ptr %0, align 8, !tbaa !14
  %64 = getelementptr inbounds nuw i8, ptr %63, i64 40
  store i32 22, ptr %64, align 8, !tbaa !15
  %65 = load ptr, ptr %63, align 8, !tbaa !19
  tail call void %65(ptr noundef nonnull %0) #9
  br label %.thread

66:                                               ; preds = %60
  br i1 %.not80, label %67, label %.thread

67:                                               ; preds = %66
  %68 = getelementptr inbounds nuw i8, ptr %1, i64 36
  %69 = load i32, ptr %68, align 4, !tbaa !74
  %.not82 = icmp eq i32 %69, 0
  br i1 %.not82, label %.loopexit.thread, label %74

.thread:                                          ; preds = %66, %.thread88
  %.091 = phi i32 [ %2, %.thread88 ], [ %58, %66 ]
  store i32 %6, ptr %57, align 8, !tbaa !95
  %70 = getelementptr inbounds nuw i8, ptr %1, i64 36
  %71 = load i32, ptr %70, align 4, !tbaa !74
  %.not82105 = icmp eq i32 %71, 0
  br i1 %.not82105, label %.loopexit.thread110, label %74

.thread93:                                        ; preds = %62
  %72 = getelementptr inbounds nuw i8, ptr %1, i64 36
  %73 = load i32, ptr %72, align 4, !tbaa !74
  %.not8296 = icmp eq i32 %73, 0
  br i1 %.not8296, label %.loopexit.thread, label %74

74:                                               ; preds = %.thread, %.thread93, %67
  %.08698 = phi i32 [ %2, %.thread93 ], [ %58, %67 ], [ %.091, %.thread ]
  %75 = getelementptr inbounds nuw i8, ptr %1, i64 12
  %76 = load i32, ptr %75, align 4, !tbaa !72
  %77 = zext i32 %76 to i64
  %78 = zext i1 %10 to i64
  %79 = shl nuw nsw i64 %77, %78
  %80 = load i32, ptr %26, align 4, !tbaa !94
  %81 = sub i32 %.08698, %80
  %82 = sub i32 %6, %80
  %83 = icmp ult i32 %81, %82
  br i1 %83, label %.lr.ph.preheader, label %.loopexit

.lr.ph.preheader:                                 ; preds = %74
  %84 = zext i32 %81 to i64
  br label %.lr.ph

.lr.ph:                                           ; preds = %.lr.ph.preheader, %.lr.ph
  %indvars.iv = phi i64 [ %84, %.lr.ph.preheader ], [ %indvars.iv.next, %.lr.ph ]
  %85 = load ptr, ptr %1, align 8, !tbaa !67
  %86 = getelementptr inbounds nuw ptr, ptr %85, i64 %indvars.iv
  %87 = load ptr, ptr %86, align 8, !tbaa !56
  tail call void @jzero_far(ptr noundef %87, i64 noundef %79) #9
  %indvars.iv.next = add nuw nsw i64 %indvars.iv, 1
  %lftr.wideiv = trunc i64 %indvars.iv.next to i32
  %exitcond.not = icmp eq i32 %82, %lftr.wideiv
  br i1 %exitcond.not, label %.loopexit, label %.lr.ph, !llvm.loop !104

.loopexit.thread:                                 ; preds = %.thread93, %67
  %88 = load ptr, ptr %0, align 8, !tbaa !14
  %89 = getelementptr inbounds nuw i8, ptr %88, i64 40
  store i32 22, ptr %89, align 8, !tbaa !15
  %90 = load ptr, ptr %88, align 8, !tbaa !19
  tail call void %90(ptr noundef nonnull %0) #9
  br label %92

.loopexit:                                        ; preds = %.lr.ph, %74, %56
  %.not83 = icmp eq i32 %4, 0
  br i1 %.not83, label %92, label %.loopexit.thread110

.loopexit.thread110:                              ; preds = %.thread, %.loopexit
  %91 = getelementptr inbounds nuw i8, ptr %1, i64 40
  store i32 1, ptr %91, align 8, !tbaa !96
  br label %92

92:                                               ; preds = %.loopexit.thread, %.loopexit.thread110, %.loopexit
  %93 = load ptr, ptr %1, align 8, !tbaa !67
  %94 = load i32, ptr %26, align 4, !tbaa !94
  %95 = sub i32 %2, %94
  %96 = zext i32 %95 to i64
  %97 = getelementptr inbounds nuw ptr, ptr %93, i64 %96
  ret ptr %97
}